target datalayout = "e-m:e-p270:32:32-p271:32:32-p272:64:64-i64:64-i128:128-f80:128-n8:16:32:64-S128"
target triple = "x86_64-pc-linux-gnu"

%struct.lexbor_shs_hash_t = type { i32, i32, i32 }
%struct.lxb_encoding_range_index_t = type { i32, i32 }

@lxb_encoding_multi_hash_gb18030 = external constant [23941 x %struct.lexbor_shs_hash_t], align 16
@lxb_encoding_range_index_gb18030 = external constant [207 x %struct.lxb_encoding_range_index_t], align 16

; Function Attrs: nounwind uwtable
define internal i32 @lxb_encoding_encode_gb18030_range(i32 noundef %0) #0 {
  %2 = alloca i32, align 4
  %3 = alloca i32, align 4
  %4 = alloca i64, align 8
  %5 = alloca i64, align 8
  %6 = alloca i64, align 8
  %7 = alloca ptr, align 8
  store i32 %0, ptr %3, align 4
  %8 = load i32, ptr %3, align 4
  %9 = icmp eq i32 %8, 59335
  br i1 %9, label %10, label %11

10:                                               ; preds = %1
  store i32 7457, ptr %2, align 4
  br label %87

11:                                               ; preds = %1
  store i64 0, ptr %5, align 8
  store i64 207, ptr %6, align 8
  store ptr @lxb_encoding_range_index_gb18030, ptr %7, align 8
  store i64 0, ptr %4, align 8
  br label %12

12:                                               ; preds = %72, %11
  %13 = load i64, ptr %5, align 8
  %14 = load i64, ptr %6, align 8
  %15 = icmp ult i64 %13, %14
  br i1 %15, label %16, label %73

16:                                               ; preds = %12
  %17 = load i64, ptr %5, align 8
  %18 = load i64, ptr %6, align 8
  %19 = load i64, ptr %5, align 8
  %20 = sub i64 %18, %19
  %21 = udiv i64 %20, 2
  %22 = add i64 %17, %21
  store i64 %22, ptr %4, align 8
  %23 = load ptr, ptr %7, align 8
  %24 = load i64, ptr %4, align 8
  %25 = getelementptr inbounds %struct.lxb_encoding_range_index_t, ptr %23, i64 %24
  %26 = getelementptr inbounds %struct.lxb_encoding_range_index_t, ptr %25, i32 0, i32 1
  %27 = load i32, ptr %26, align 4
  %28 = load i32, ptr %3, align 4
  %29 = icmp ult i32 %27, %28
  br i1 %29, label %30, label %46

30:                                               ; preds = %16
  %31 = load i64, ptr %4, align 8
  %32 = add i64 %31, 1
  store i64 %32, ptr %5, align 8
  %33 = load i64, ptr %5, align 8
  %34 = load i64, ptr %6, align 8
  %35 = icmp ult i64 %33, %34
  br i1 %35, label %36, label %45

36:                                               ; preds = %30
  %37 = load ptr, ptr %7, align 8
  %38 = load i64, ptr %5, align 8
  %39 = getelementptr inbounds %struct.lxb_encoding_range_index_t, ptr %37, i64 %38
  %40 = getelementptr inbounds %struct.lxb_encoding_range_index_t, ptr %39, i32 0, i32 1
  %41 = load i32, ptr %40, align 4
  %42 = load i32, ptr %3, align 4
  %43 = icmp ugt i32 %41, %42
  br i1 %43, label %44, label %45

44:                                               ; preds = %36
  br label %73

45:                                               ; preds = %36, %30
  br label %72

46:                                               ; preds = %16
  %47 = load ptr, ptr %7, align 8
  %48 = load i64, ptr %4, align 8
  %49 = getelementptr inbounds %struct.lxb_encoding_range_index_t, ptr %47, i64 %48
  %50 = getelementptr inbounds %struct.lxb_encoding_range_index_t, ptr %49, i32 0, i32 1
  %51 = load i32, ptr %50, align 4
  %52 = load i32, ptr %3, align 4
  %53 = icmp ugt i32 %51, %52
  br i1 %53, label %54, label %70

54:                                               ; preds = %46
  %55 = load i64, ptr %4, align 8
  %56 = sub i64 %55, 1
  store i64 %56, ptr %6, align 8
  %57 = load i64, ptr %6, align 8
  %58 = icmp ugt i64 %57, 0
  br i1 %58, label %59, label %69

59:                                               ; preds = %54
  %60 = load ptr, ptr %7, align 8
  %61 = load i64, ptr %6, align 8
  %62 = getelementptr inbounds %struct.lxb_encoding_range_index_t, ptr %60, i64 %61
  %63 = getelementptr inbounds %struct.lxb_encoding_range_index_t, ptr %62, i32 0, i32 1
  %64 = load i32, ptr %63, align 4
  %65 = load i32, ptr %3, align 4
  %66 = icmp ule i32 %64, %65
  br i1 %66, label %67, label %69

67:                                               ; preds = %59
  %68 = load i64, ptr %6, align 8
  store i64 %68, ptr %4, align 8
  br label %73

69:                                               ; preds = %59, %54
  br label %71

70:                                               ; preds = %46
  br label %73

71:                                               ; preds = %69
  br label %72

72:                                               ; preds = %71, %45
  br label %12

73:                                               ; preds = %70, %67, %44, %12
  %74 = load ptr, ptr %7, align 8
  %75 = load i64, ptr %4, align 8
  %76 = getelementptr inbounds %struct.lxb_encoding_range_index_t, ptr %74, i64 %75
  %77 = getelementptr inbounds %struct.lxb_encoding_range_index_t, ptr %76, i32 0, i32 0
  %78 = load i32, ptr %77, align 4
  %79 = load i32, ptr %3, align 4
  %80 = add i32 %78, %79
  %81 = load ptr, ptr %7, align 8
  %82 = load i64, ptr %4, align 8
  %83 = getelementptr inbounds %struct.lxb_encoding_range_index_t, ptr %81, i64 %82
  %84 = getelementptr inbounds %struct.lxb_encoding_range_index_t, ptr %83, i32 0, i32 1
  %85 = load i32, ptr %84, align 4
  %86 = sub i32 %80, %85
  store i32 %86, ptr %2, align 4
  br label %87

87:                                               ; preds = %73, %10
  %88 = load i32, ptr %2, align 4
  ret i32 %88
}

; Function Attrs: nounwind uwtable
define internal ptr @lexbor_shs_hash_get_static(ptr noundef %0, i64 noundef %1, i32 noundef %2) #0 {
  %4 = alloca ptr, align 8
  %5 = alloca ptr, align 8
  %6 = alloca i64, align 8
  %7 = alloca i32, align 4
  %8 = alloca ptr, align 8
  store ptr %0, ptr %5, align 8
  store i64 %1, ptr %6, align 8
  store i32 %2, ptr %7, align 4
  %9 = load ptr, ptr %5, align 8
  %10 = load i32, ptr %7, align 4
  %11 = zext i32 %10 to i64
  %12 = load i64, ptr %6, align 8
  %13 = urem i64 %11, %12
  %14 = add i64 %13, 1
  %15 = getelementptr inbounds %struct.lexbor_shs_hash_t, ptr %9, i64 %14
  store ptr %15, ptr %8, align 8
  br label %16

16:                                               ; preds = %31, %3
  %17 = load ptr, ptr %8, align 8
  %18 = getelementptr inbounds %struct.lexbor_shs_hash_t, ptr %17, i32 0, i32 0
  %19 = load i32, ptr %18, align 4
  %20 = load i32, ptr %7, align 4
  %21 = icmp eq i32 %19, %20
  br i1 %21, label %22, label %24

22:                                               ; preds = %16
  %23 = load ptr, ptr %8, align 8
  store ptr %23, ptr %4, align 8
  br label %36

24:                                               ; preds = %16
  %25 = load ptr, ptr %5, align 8
  %26 = load ptr, ptr %8, align 8
  %27 = getelementptr inbounds %struct.lexbor_shs_hash_t, ptr %26, i32 0, i32 2
  %28 = load i32, ptr %27, align 4
  %29 = zext i32 %28 to i64
  %30 = getelementptr inbounds %struct.lexbor_shs_hash_t, ptr %25, i64 %29
  store ptr %30, ptr %8, align 8
  br label %31

31:                                               ; preds = %24
  %32 = load ptr, ptr %8, align 8
  %33 = load ptr, ptr %5, align 8
  %34 = icmp ne ptr %32, %33
  br i1 %34, label %16, label %35

35:                                               ; preds = %31
  store ptr null, ptr %4, align 8
  br label %36

36:                                               ; preds = %35, %22
  %37 = load ptr, ptr %4, align 8
  ret ptr %37
}

; Function Attrs: nounwind uwtable
define hidden signext i8 @lxb_encoding_encode_gb18030_single(ptr noundef %0, ptr noundef %1, ptr noundef %2, i32 noundef %3) #0 {
  %5 = alloca i8, align 1
  %6 = alloca ptr, align 8
  %7 = alloca ptr, align 8
  %8 = alloca ptr, align 8
  %9 = alloca i32, align 4
  %10 = alloca i32, align 4
  %11 = alloca ptr, align 8
  store ptr %0, ptr %6, align 8
  store ptr %1, ptr %7, align 8
  store ptr %2, ptr %8, align 8
  store i32 %3, ptr %9, align 4
  %12 = load i32, ptr %9, align 4
  %13 = icmp ult i32 %12, 128
  br i1 %13, label %14, label %20

14:                                               ; preds = %4
  %15 = load i32, ptr %9, align 4
  %16 = trunc i32 %15 to i8
  %17 = load ptr, ptr %7, align 8
  %18 = load ptr, ptr %17, align 8
  %19 = getelementptr inbounds i8, ptr %18, i32 1
  store ptr %19, ptr %17, align 8
  store i8 %16, ptr %18, align 1
  store i8 1, ptr %5, align 1
  br label %122

20:                                               ; preds = %4
  %21 = load i32, ptr %9, align 4
  %22 = icmp eq i32 %21, 58853
  br i1 %22, label %23, label %24

23:                                               ; preds = %20
  store i8 -1, ptr %5, align 1
  br label %122

24:                                               ; preds = %20
  %25 = load i32, ptr %9, align 4
  %26 = call ptr @lexbor_shs_hash_get_static(ptr noundef @lxb_encoding_multi_hash_gb18030, i64 noundef 19950, i32 noundef %25)
  store ptr %26, ptr %11, align 8
  %27 = load ptr, ptr %11, align 8
  %28 = icmp ne ptr %27, null
  br i1 %28, label %29, label %80

29:                                               ; preds = %24
  %30 = load ptr, ptr %7, align 8
  %31 = load ptr, ptr %30, align 8
  %32 = getelementptr inbounds i8, ptr %31, i64 2
  %33 = load ptr, ptr %8, align 8
  %34 = icmp ugt ptr %32, %33
  br i1 %34, label %35, label %36

35:                                               ; preds = %29
  store i8 -2, ptr %5, align 1
  br label %122

36:                                               ; preds = %29
  %37 = load ptr, ptr %11, align 8
  %38 = getelementptr inbounds %struct.lexbor_shs_hash_t, ptr %37, i32 0, i32 1
  %39 = load i32, ptr %38, align 4
  %40 = zext i32 %39 to i64
  %41 = trunc i64 %40 to i32
  %42 = udiv i32 %41, 190
  %43 = add i32 %42, 129
  %44 = trunc i32 %43 to i8
  %45 = load ptr, ptr %7, align 8
  %46 = load ptr, ptr %45, align 8
  %47 = getelementptr inbounds i8, ptr %46, i32 1
  store ptr %47, ptr %45, align 8
  store i8 %44, ptr %46, align 1
  %48 = load ptr, ptr %11, align 8
  %49 = getelementptr inbounds %struct.lexbor_shs_hash_t, ptr %48, i32 0, i32 1
  %50 = load i32, ptr %49, align 4
  %51 = zext i32 %50 to i64
  %52 = trunc i64 %51 to i32
  %53 = urem i32 %52, 190
  %54 = icmp ult i32 %53, 63
  br i1 %54, label %55, label %67

55:                                               ; preds = %36
  %56 = load ptr, ptr %11, align 8
  %57 = getelementptr inbounds %struct.lexbor_shs_hash_t, ptr %56, i32 0, i32 1
  %58 = load i32, ptr %57, align 4
  %59 = zext i32 %58 to i64
  %60 = trunc i64 %59 to i32
  %61 = urem i32 %60, 190
  %62 = add i32 %61, 64
  %63 = trunc i32 %62 to i8
  %64 = load ptr, ptr %7, align 8
  %65 = load ptr, ptr %64, align 8
  %66 = getelementptr inbounds i8, ptr %65, i32 1
  store ptr %66, ptr %64, align 8
  store i8 %63, ptr %65, align 1
  br label %79

67:                                               ; preds = %36
  %68 = load ptr, ptr %11, align 8
  %69 = getelementptr inbounds %struct.lexbor_shs_hash_t, ptr %68, i32 0, i32 1
  %70 = load i32, ptr %69, align 4
  %71 = zext i32 %70 to i64
  %72 = trunc i64 %71 to i32
  %73 = urem i32 %72, 190
  %74 = add i32 %73, 65
  %75 = trunc i32 %74 to i8
  %76 = load ptr, ptr %7, align 8
  %77 = load ptr, ptr %76, align 8
  %78 = getelementptr inbounds i8, ptr %77, i32 1
  store ptr %78, ptr %76, align 8
  store i8 %75, ptr %77, align 1
  br label %79

79:                                               ; preds = %67, %55
  store i8 2, ptr %5, align 1
  br label %122

80:                                               ; preds = %24
  %81 = load ptr, ptr %7, align 8
  %82 = load ptr, ptr %81, align 8
  %83 = getelementptr inbounds i8, ptr %82, i64 4
  %84 = load ptr, ptr %8, align 8
  %85 = icmp ugt ptr %83, %84
  br i1 %85, label %86, label %87

86:                                               ; preds = %80
  store i8 -2, ptr %5, align 1
  br label %122

87:                                               ; preds = %80
  %88 = load i32, ptr %9, align 4
  %89 = call i32 @lxb_encoding_encode_gb18030_range(i32 noundef %88)
  store i32 %89, ptr %10, align 4
  %90 = load i32, ptr %10, align 4
  %91 = udiv i32 %90, 12600
  %92 = add i32 %91, 129
  %93 = trunc i32 %92 to i8
  %94 = load ptr, ptr %7, align 8
  %95 = load ptr, ptr %94, align 8
  %96 = getelementptr inbounds i8, ptr %95, i32 1
  store ptr %96, ptr %94, align 8
  store i8 %93, ptr %95, align 1
  %97 = load i32, ptr %10, align 4
  %98 = urem i32 %97, 12600
  %99 = udiv i32 %98, 1260
  %100 = add i32 %99, 48
  %101 = trunc i32 %100 to i8
  %102 = load ptr, ptr %7, align 8
  %103 = load ptr, ptr %102, align 8
  %104 = getelementptr inbounds i8, ptr %103, i32 1
  store ptr %104, ptr %102, align 8
  store i8 %101, ptr %103, align 1
  %105 = load i32, ptr %10, align 4
  %106 = urem i32 %105, 12600
  %107 = urem i32 %106, 1260
  store i32 %107, ptr %10, align 4
  %108 = load i32, ptr %10, align 4
  %109 = udiv i32 %108, 10
  %110 = add i32 %109, 129
  %111 = trunc i32 %110 to i8
  %112 = load ptr, ptr %7, align 8
  %113 = load ptr, ptr %112, align 8
  %114 = getelementptr inbounds i8, ptr %113, i32 1
  store ptr %114, ptr %112, align 8
  store i8 %111, ptr %113, align 1
  %115 = load i32, ptr %10, align 4
  %116 = urem i32 %115, 10
  %117 = add i32 %116, 48
  %118 = trunc i32 %117 to i8
  %119 = load ptr, ptr %7, align 8
  %120 = load ptr, ptr %119, align 8
  %121 = getelementptr inbounds i8, ptr %120, i32 1
  store ptr %121, ptr %119, align 8
  store i8 %118, ptr %120, align 1
  store i8 4, ptr %5, align 1
  br label %122

122:                                              ; preds = %87, %86, %79, %35, %23, %14
  %123 = load i8, ptr %5, align 1
  ret i8 %123
}