; Function Attrs: nofree norecurse nosync nounwind memory(write, argmem: readwrite, inaccessiblemem: none) uwtable
define hidden noundef signext i8 @lxb_encoding_encode_gb18030_single(ptr nocapture noundef readnone %0, ptr nocapture noundef %1, ptr noundef readnone %2, i32 noundef %3) local_unnamed_addr #6 {
  %5 = icmp ult i32 %3, 128
  br i1 %5, label %6, label %10

6:                                                ; preds = %4
  %7 = trunc i32 %3 to i8
  %8 = load ptr, ptr %1, align 8
  %9 = getelementptr inbounds i8, ptr %8, i64 1
  store ptr %9, ptr %1, align 8
  store i8 %7, ptr %8, align 1
  br label %98

10:                                               ; preds = %4
  %11 = icmp eq i32 %3, 58853
  br i1 %11, label %98, label %12

12:                                               ; preds = %10
  %13 = urem i32 %3, 19950
  %.zext = zext nneg i32 %13 to i64
  %14 = getelementptr %struct.lexbor_shs_hash_t, ptr @lxb_encoding_multi_hash_gb18030, i64 %.zext
  %15 = getelementptr i8, ptr %14, i64 12
  br label %16

16:                                               ; preds = %19, %12
  %.0.i = phi ptr [ %15, %12 ], [ %23, %19 ]
  %17 = load i32, ptr %.0.i, align 4
  %18 = icmp eq i32 %17, %3
  br i1 %18, label %lexbor_shs_hash_get_static.exit, label %19

19:                                               ; preds = %16
  %20 = getelementptr inbounds i8, ptr %.0.i, i64 8
  %21 = load i32, ptr %20, align 4
  %22 = zext i32 %21 to i64
  %23 = getelementptr inbounds %struct.lexbor_shs_hash_t, ptr @lxb_encoding_multi_hash_gb18030, i64 %22
  %.not.i = icmp eq i32 %21, 0
  br i1 %.not.i, label %43, label %16

lexbor_shs_hash_get_static.exit:                  ; preds = %16
  %24 = load ptr, ptr %1, align 8
  %25 = getelementptr inbounds i8, ptr %24, i64 2
  %26 = icmp ugt ptr %25, %2
  br i1 %26, label %98, label %27

27:                                               ; preds = %lexbor_shs_hash_get_static.exit
  %28 = getelementptr inbounds i8, ptr %.0.i, i64 4
  %29 = load i32, ptr %28, align 4
  %30 = udiv i32 %29, 190
  %31 = trunc i32 %30 to i8
  %32 = add i8 %31, -127
  %33 = getelementptr inbounds i8, ptr %24, i64 1
  store ptr %33, ptr %1, align 8
  store i8 %32, ptr %24, align 1
  %34 = urem i32 %29, 190
  %35 = icmp ult i32 %34, 63
  %36 = trunc i32 %34 to i8
  %37 = load ptr, ptr %1, align 8
  %38 = getelementptr inbounds i8, ptr %37, i64 1
  store ptr %38, ptr %1, align 8
  br i1 %35, label %39, label %41

39:                                               ; preds = %27
  %40 = or disjoint i8 %36, 64
  store i8 %40, ptr %37, align 1
  br label %98

41:                                               ; preds = %27
  %42 = add nuw i8 %36, 65
  store i8 %42, ptr %37, align 1
  br label %98

43:                                               ; preds = %19
  %44 = load ptr, ptr %1, align 8
  %45 = getelementptr inbounds i8, ptr %44, i64 4
  %46 = icmp ugt ptr %45, %2
  br i1 %46, label %98, label %47

47:                                               ; preds = %43
  %48 = icmp eq i32 %3, 59335
  br i1 %48, label %lxb_encoding_encode_gb18030_range.exit, label %.preheader.i

.preheader.i:                                     ; preds = %47, %69
  %.02942.i = phi i64 [ %.1.i, %69 ], [ 207, %47 ]
  %.03041.i = phi i64 [ %.131.i, %69 ], [ 0, %47 ]
  %49 = sub i64 %.02942.i, %.03041.i
  %50 = lshr i64 %49, 1
  %51 = add i64 %50, %.03041.i
  %52 = getelementptr inbounds %struct.lxb_encoding_range_index_t, ptr @lxb_encoding_range_index_gb18030, i64 %51, i32 1
  %53 = load i32, ptr %52, align 4
  %54 = icmp ult i32 %53, %3
  br i1 %54, label %55, label %62

55:                                               ; preds = %.preheader.i
  %56 = add i64 %51, 1
  %57 = icmp ult i64 %56, %.02942.i
  br i1 %57, label %58, label %69

58:                                               ; preds = %55
  %59 = getelementptr inbounds %struct.lxb_encoding_range_index_t, ptr @lxb_encoding_range_index_gb18030, i64 %56, i32 1
  %60 = load i32, ptr %59, align 4
  %61 = icmp ugt i32 %60, %3
  br i1 %61, label %.thread.i, label %69

62:                                               ; preds = %.preheader.i
  %63 = icmp ugt i32 %53, %3
  br i1 %63, label %64, label %.thread.i

64:                                               ; preds = %62
  %65 = add i64 %51, -1
  %.not.i32 = icmp eq i64 %65, 0
  br i1 %.not.i32, label %.thread.i, label %66

66:                                               ; preds = %64
  %67 = getelementptr inbounds %struct.lxb_encoding_range_index_t, ptr @lxb_encoding_range_index_gb18030, i64 %65, i32 1
  %68 = load i32, ptr %67, align 4
  %.not40.i = icmp ugt i32 %68, %3
  br i1 %.not40.i, label %69, label %.thread.i

69:                                               ; preds = %66, %58, %55
  %.131.i = phi i64 [ %56, %58 ], [ %56, %55 ], [ %.03041.i, %66 ]
  %.1.i = phi i64 [ %.02942.i, %58 ], [ %.02942.i, %55 ], [ %65, %66 ]
  %70 = icmp ult i64 %.131.i, %.1.i
  br i1 %70, label %.preheader.i, label %.thread.i

.thread.i:                                        ; preds = %69, %66, %64, %62, %58
  %.133.i = phi i64 [ %51, %58 ], [ %51, %62 ], [ %51, %69 ], [ %65, %66 ], [ 1, %64 ]
  %71 = getelementptr inbounds %struct.lxb_encoding_range_index_t, ptr @lxb_encoding_range_index_gb18030, i64 %.133.i
  %72 = load i32, ptr %71, align 8
  %73 = add i32 %72, %3
  %74 = getelementptr inbounds i8, ptr %71, i64 4
  %75 = load i32, ptr %74, align 4
  %76 = sub i32 %73, %75
  br label %lxb_encoding_encode_gb18030_range.exit

lxb_encoding_encode_gb18030_range.exit:           ; preds = %47, %.thread.i
  %.0.i31 = phi i32 [ %76, %.thread.i ], [ 7457, %47 ]
  %77 = udiv i32 %.0.i31, 12600
  %78 = trunc i32 %77 to i8
  %79 = add i8 %78, -127
  %80 = getelementptr inbounds i8, ptr %44, i64 1
  store ptr %80, ptr %1, align 8
  store i8 %79, ptr %44, align 1
  %81 = urem i32 %.0.i31, 12600
  %.lhs.trunc35 = trunc i32 %81 to i16
  %82 = udiv i16 %.lhs.trunc35, 1260
  %83 = trunc i16 %82 to i8
  %84 = or disjoint i8 %83, 48
  %85 = load ptr, ptr %1, align 8
  %86 = getelementptr inbounds i8, ptr %85, i64 1
  store ptr %86, ptr %1, align 8
  store i8 %84, ptr %85, align 1
  %87 = urem i16 %.lhs.trunc35, 1260
  %88 = udiv i16 %87, 10
  %89 = trunc i16 %88 to i8
  %90 = add nuw nsw i8 %89, -127
  %91 = load ptr, ptr %1, align 8
  %92 = getelementptr inbounds i8, ptr %91, i64 1
  store ptr %92, ptr %1, align 8
  store i8 %90, ptr %91, align 1
  %93 = urem i16 %87, 10
  %94 = trunc i16 %93 to i8
  %95 = or disjoint i8 %94, 48
  %96 = load ptr, ptr %1, align 8
  %97 = getelementptr inbounds i8, ptr %96, i64 1
  store ptr %97, ptr %1, align 8
  store i8 %95, ptr %96, align 1
  br label %98

98:                                               ; preds = %43, %39, %41, %lexbor_shs_hash_get_static.exit, %10, %lxb_encoding_encode_gb18030_range.exit, %6
  %.0 = phi i8 [ 1, %6 ], [ 4, %lxb_encoding_encode_gb18030_range.exit ], [ -1, %10 ], [ -2, %lexbor_shs_hash_get_static.exit ], [ 2, %41 ], [ 2, %39 ], [ -2, %43 ]
  ret i8 %.0
}